Certificate:
    Data:
        Version: 3 (0x2)
        Serial Number:
            91:f1:d0:de:2c:89:6d:38:b5:8b:38:f0:18:3d:86:ac
    Signature Algorithm: sha256WithRSAEncryption
        Issuer: CN=Easy-RSA CA
        Validity
            Not Before: Nov 26 13:36:21 2018 GMT
            Not After : Nov 23 13:36:21 2028 GMT
        Subject: CN=CLIENTNAME
        Subject Public Key Info:
            Public Key Algorithm: rsaEncryption
                Public-Key: (2048 bit)
                Modulus:
                    00:de:c2:ab:3f:50:08:21:23:b9:2c:71:08:cd:05:
                    93:8c:e8:a6:3a:4d:6a:db:5c:ee:a6:0d:77:83:20:
                    07:84:03:90:9f:e7:d8:6f:b8:27:36:11:f8:1f:62:
                    b8:b3:49:67:77:9c:9b:59:2f:da:63:64:69:92:0c:
                    23:40:1d:21:6e:f2:01:e1:75:8b:d2:60:36:af:7c:
                    6a:fb:d0:38:9b:d6:a1:b1:51:75:2e:39:22:d9:ed:
                    64:08:9c:37:f3:1e:fe:f8:27:c2:e1:58:fb:bb:d7:
                    88:92:e1:e1:3a:74:84:bb:bd:65:3e:a3:9c:5a:bb:
                    72:56:a8:65:e1:45:e6:99:4d:e6:9b:2c:a0:3f:a4:
                    d4:81:20:95:f2:0e:4c:47:15:c8:92:92:dc:2c:dc:
                    31:9d:e2:e7:f9:b6:e4:cc:53:ea:29:8a:da:6f:1b:
                    14:46:77:07:db:da:1b:17:12:64:6b:4b:28:72:75:
                    ee:89:81:1e:62:8f:22:b5:eb:9f:c2:3f:cb:28:33:
                    d7:ba:58:90:f9:b7:79:ac:80:56:dc:33:cf:88:f2:
                    a5:d9:1f:62:9d:aa:5f:3c:50:de:3d:40:27:50:6f:
                    8d:3e:c8:04:e3:eb:f8:a7:bc:98:b3:d8:aa:ab:2b:
                    a9:28:a9:7d:02:08:d2:f8:4e:86:3a:b7:1b:59:68:
                    7d:55
                Exponent: 65537 (0x10001)
        X509v3 extensions:
            X509v3 Basic Constraints: 
                CA:FALSE
            X509v3 Subject Key Identifier: 
                4D:99:4D:F9:98:37:55:D8:A2:42:12:72:4A:F1:45:C5:15:71:9A:58
            X509v3 Authority Key Identifier: 
                keyid:81:0C:98:DB:6B:52:44:0C:1D:46:F0:6F:3E:FB:A6:B8:1C:EC:AD:F3
                DirName:/CN=Easy-RSA CA
                serial:D8:17:3D:C0:56:39:49:64

            X509v3 Extended Key Usage: 
                TLS Web Client Authentication
            X509v3 Key Usage: 
                Digital Signature
    Signature Algorithm: sha256WithRSAEncryption
         9e:fe:56:21:51:ce:c7:c2:80:d7:aa:9f:ba:36:95:0a:26:bb:
         2c:96:82:2d:8e:68:c6:bb:fd:f1:d9:56:db:8a:9f:cc:33:60:
         c0:90:1e:f0:b7:fe:f4:e6:4b:97:e3:1c:46:e3:32:85:9f:80:
         97:2f:cf:d0:d1:d1:20:ba:6c:8c:be:ff:c1:4a:5e:37:6d:f9:
         23:ee:c4:7f:14:7f:13:fb:97:1c:23:a8:3b:04:4b:ab:a7:86:
         01:ed:59:a6:88:56:a4:63:67:1c:33:73:2c:a4:29:30:f6:4e:
         88:63:b4:b5:dd:cf:47:0a:ce:69:77:c1:d6:10:86:80:31:99:
         b3:fe:3a:4d:cc:e2:2b:e6:c4:db:fc:da:dc:17:46:f5:cc:03:
         07:3b:ec:5d:91:04:48:79:46:3b:c8:08:46:26:75:ca:6b:3e:
         4d:2e:9e:3b:0e:de:9b:ba:ef:7e:46:c7:c0:be:5c:f0:b2:09:
         58:db:96:bc:53:a0:af:bd:a1:de:01:dc:03:0c:72:7c:89:33:
         64:7b:67:f9:08:3a:b6:6e:1a:03:38:13:ce:8b:ca:f7:d0:1c:
         fa:c4:bd:42:c8:5d:4d:2f:06:74:b0:d8:69:21:3c:aa:ef:b4:
         10:59:99:65:a7:69:0f:bf:33:32:75:ab:1a:86:f2:1b:3f:09:
         46:b2:2e:29
-----BEGIN CERTIFICATE-----
MIIDTjCCAjagAwIBAgIRAJHx0N4siW04tYs48Bg9hqwwDQYJKoZIhvcNAQELBQAw
FjEUMBIGA1UEAwwLRWFzeS1SU0EgQ0EwHhcNMTgxMTI2MTMzNjIxWhcNMjgxMTIz
MTMzNjIxWjAVMRMwEQYDVQQDDApDTElFTlROQU1FMIIBIjANBgkqhkiG9w0BAQEF
AAOCAQ8AMIIBCgKCAQEA3sKrP1AIISO5LHEIzQWTjOimOk1q21zupg13gyAHhAOQ
n+fYb7gnNhH4H2K4s0lnd5ybWS/aY2RpkgwjQB0hbvIB4XWL0mA2r3xq+9A4m9ah
sVF1Ljki2e1kCJw38x7++CfC4Vj7u9eIkuHhOnSEu71lPqOcWrtyVqhl4UXmmU3m
myygP6TUgSCV8g5MRxXIkpLcLNwxneLn+bbkzFPqKYrabxsURncH29obFxJka0so
cnXuiYEeYo8iteufwj/LKDPXuliQ+bd5rIBW3DPPiPKl2R9inapfPFDePUAnUG+N
PsgE4+v4p7yYs9iqqyupKKl9AgjS+E6GOrcbWWh9VQIDAQABo4GXMIGUMAkGA1Ud
EwQCMAAwHQYDVR0OBBYEFE2ZTfmYN1XYokISckrxRcUVcZpYMEYGA1UdIwQ/MD2A
FIEMmNtrUkQMHUbwbz77prgc7K3zoRqkGDAWMRQwEgYDVQQDDAtFYXN5LVJTQSBD
QYIJANgXPcBWOUlkMBMGA1UdJQQMMAoGCCsGAQUFBwMCMAsGA1UdDwQEAwIHgDAN
BgkqhkiG9w0BAQsFAAOCAQEAnv5WIVHOx8KA16qfujaVCia7LJaCLY5oxrv98dlW
24qfzDNgwJAe8Lf+9OZLl+McRuMyhZ+Aly/P0NHRILpsjL7/wUpeN235I+7EfxR/
E/uXHCOoOwRLq6eGAe1ZpohWpGNnHDNzLKQpMPZOiGO0td3PRwrOaXfB1hCGgDGZ
s/46TcziK+bE2/za3BdG9cwDBzvsXZEESHlGO8gIRiZ1yms+TS6eOw7em7rvfkbH
wL5c8LIJWNuWvFOgr72h3gHcAwxyfIkzZHtn+Qg6tm4aAzgTzovK99Ac+sS9Qshd
TS8GdLDYaSE8qu+0EFmZZadpD78zMnWrGobyGz8JRrIuKQ==
-----END CERTIFICATE-----
