Certificate:
    Data:
        Version: 3 (0x2)
        Serial Number:
            55:b1:9c:8b:6c:bf:2e:36:06:c3:e1:aa:cc:0d:0e:29
    Signature Algorithm: sha256WithRSAEncryption
        Issuer: CN=Easy-RSA CA
        Validity
            Not Before: Nov 27 02:22:18 2018 GMT
            Not After : Nov 24 02:22:18 2028 GMT
        Subject: CN=jiangyibo
        Subject Public Key Info:
            Public Key Algorithm: rsaEncryption
                Public-Key: (2048 bit)
                Modulus:
                    00:b3:27:15:01:b3:b3:26:e1:19:da:af:e6:ba:c5:
                    75:b6:9e:21:44:85:d7:34:fe:10:c4:ca:68:ec:3a:
                    ae:0f:22:12:cc:87:53:62:1a:f2:75:aa:0f:43:d5:
                    db:18:45:36:41:26:5d:b4:f9:23:34:9f:be:e5:be:
                    6a:66:04:63:7c:5e:c0:2c:5c:93:18:aa:2d:7f:b1:
                    cd:ce:7a:73:db:de:3f:a8:15:0f:f4:56:55:c7:40:
                    41:67:36:12:d5:45:4c:1a:af:6a:61:0a:3b:12:15:
                    2f:70:b5:46:d0:9b:03:39:14:ee:16:f2:4d:16:02:
                    ed:58:26:e2:f7:7e:1a:b0:42:c9:bb:a0:7e:7b:34:
                    1f:dc:84:b1:e0:98:ae:f8:7b:8b:c5:dd:d3:36:8c:
                    e6:ab:f5:d1:f9:5b:6a:03:89:fb:db:21:d9:0a:ae:
                    b9:2f:36:be:f7:40:91:5a:a8:8f:11:93:f0:69:2b:
                    64:58:04:c0:67:b3:34:b5:8c:5a:8e:51:5b:1d:b7:
                    3d:88:2b:72:19:03:57:1e:f7:16:06:aa:b1:fa:f9:
                    10:3b:f4:05:74:46:2b:eb:6f:ca:84:20:39:b3:7f:
                    f4:df:ee:3b:84:18:2e:63:f4:83:a9:90:6f:f5:82:
                    09:72:b0:2e:a4:69:30:4f:59:26:5f:a2:5f:fd:8d:
                    1b:b3
                Exponent: 65537 (0x10001)
        X509v3 extensions:
            X509v3 Basic Constraints: 
                CA:FALSE
            X509v3 Subject Key Identifier: 
                01:F7:C1:98:A6:7F:55:57:FF:D5:3F:BB:A8:46:3C:73:38:80:F4:22
            X509v3 Authority Key Identifier: 
                keyid:81:0C:98:DB:6B:52:44:0C:1D:46:F0:6F:3E:FB:A6:B8:1C:EC:AD:F3
                DirName:/CN=Easy-RSA CA
                serial:D8:17:3D:C0:56:39:49:64

            X509v3 Extended Key Usage: 
                TLS Web Client Authentication
            X509v3 Key Usage: 
                Digital Signature
    Signature Algorithm: sha256WithRSAEncryption
         a2:8d:4d:fe:e5:5c:8f:ba:de:f9:ed:4e:b9:8d:98:36:7b:00:
         e8:bd:a4:65:f7:60:37:71:28:e1:00:76:64:6e:cf:34:bb:5a:
         c3:53:01:ed:62:81:fa:75:29:9b:20:00:5b:be:ee:b2:ba:d7:
         27:ea:d2:f4:79:aa:df:73:1b:f9:39:d4:eb:81:2e:f7:4e:01:
         6b:57:2d:dc:ea:f8:71:7e:00:4f:b6:db:10:43:b5:77:0c:22:
         6e:5d:2f:41:6c:85:5b:3f:98:8f:a2:53:bd:6f:e2:3b:1b:36:
         59:04:4b:43:b8:33:4f:d7:28:91:3e:88:ab:88:55:23:f8:3b:
         4a:ce:8b:fa:ae:b3:94:b4:d8:0c:9c:52:b7:33:6a:12:e8:30:
         12:f9:91:4d:70:8f:19:7e:64:8b:b7:9d:67:ed:e3:1e:5f:ef:
         10:3d:bc:39:40:85:40:fc:62:fe:c6:5a:77:c0:57:54:29:29:
         c2:19:11:b4:2e:88:ec:6a:e3:4e:55:c4:55:ab:f3:e6:a8:86:
         c3:fb:0a:f9:d6:75:2a:fe:b7:c4:32:81:c8:ae:56:b2:11:e5:
         1c:3b:f8:48:f9:31:64:88:d8:9f:c5:ed:2a:6d:36:56:67:28:
         63:0e:5b:37:02:eb:16:21:e7:d5:78:05:62:8e:14:1f:b0:74:
         17:1b:a1:7e
-----BEGIN CERTIFICATE-----
MIIDTDCCAjSgAwIBAgIQVbGci2y/LjYGw+GqzA0OKTANBgkqhkiG9w0BAQsFADAW
MRQwEgYDVQQDDAtFYXN5LVJTQSBDQTAeFw0xODExMjcwMjIyMThaFw0yODExMjQw
MjIyMThaMBQxEjAQBgNVBAMMCWppYW5neWlibzCCASIwDQYJKoZIhvcNAQEBBQAD
ggEPADCCAQoCggEBALMnFQGzsybhGdqv5rrFdbaeIUSF1zT+EMTKaOw6rg8iEsyH
U2Ia8nWqD0PV2xhFNkEmXbT5IzSfvuW+amYEY3xewCxckxiqLX+xzc56c9veP6gV
D/RWVcdAQWc2EtVFTBqvamEKOxIVL3C1RtCbAzkU7hbyTRYC7Vgm4vd+GrBCybug
fns0H9yEseCYrvh7i8Xd0zaM5qv10flbagOJ+9sh2QquuS82vvdAkVqojxGT8Gkr
ZFgEwGezNLWMWo5RWx23PYgrchkDVx73Fgaqsfr5EDv0BXRGK+tvyoQgObN/9N/u
O4QYLmP0g6mQb/WCCXKwLqRpME9ZJl+iX/2NG7MCAwEAAaOBlzCBlDAJBgNVHRME
AjAAMB0GA1UdDgQWBBQB98GYpn9VV//VP7uoRjxzOID0IjBGBgNVHSMEPzA9gBSB
DJjba1JEDB1G8G8++6a4HOyt86EapBgwFjEUMBIGA1UEAwwLRWFzeS1SU0EgQ0GC
CQDYFz3AVjlJZDATBgNVHSUEDDAKBggrBgEFBQcDAjALBgNVHQ8EBAMCB4AwDQYJ
KoZIhvcNAQELBQADggEBAKKNTf7lXI+63vntTrmNmDZ7AOi9pGX3YDdxKOEAdmRu
zzS7WsNTAe1igfp1KZsgAFu+7rK61yfq0vR5qt9zG/k51OuBLvdOAWtXLdzq+HF+
AE+22xBDtXcMIm5dL0FshVs/mI+iU71v4jsbNlkES0O4M0/XKJE+iKuIVSP4O0rO
i/qus5S02AycUrczahLoMBL5kU1wjxl+ZIu3nWft4x5f7xA9vDlAhUD8Yv7GWnfA
V1QpKcIZEbQuiOxq405VxFWr8+aohsP7CvnWdSr+t8QygciuVrIR5Rw7+Ej5MWSI
2J/F7SptNlZnKGMOWzcC6xYh59V4BWKOFB+wdBcboX4=
-----END CERTIFICATE-----
