Certificate:
    Data:
        Version: 3 (0x2)
        Serial Number:
            0e:75:82:88:9b:34:0b:40:21:68:63:70:b2:f6:50:69
    Signature Algorithm: sha256WithRSAEncryption
        Issuer: CN=Easy-RSA CA
        Validity
            Not Before: Nov 27 02:38:35 2018 GMT
            Not After : Nov 24 02:38:35 2028 GMT
        Subject: CN=admin
        Subject Public Key Info:
            Public Key Algorithm: rsaEncryption
                Public-Key: (2048 bit)
                Modulus:
                    00:e4:90:49:b3:04:e3:7a:8a:00:8d:33:c7:23:6f:
                    60:f9:95:d7:49:df:e9:ec:38:88:d9:7f:91:b2:3f:
                    c9:26:54:35:47:f4:07:fe:3e:61:e1:a0:c3:2b:1f:
                    ca:12:f7:2f:78:9c:7c:a0:d0:ef:1d:6d:8c:9a:b6:
                    34:2f:81:c9:3e:83:89:dc:25:5c:7b:d3:87:fe:3b:
                    eb:ec:f0:68:0d:a1:84:56:39:e2:d3:e0:12:be:71:
                    aa:35:36:4e:b3:38:1d:1c:f1:95:1a:82:f8:b7:17:
                    f3:41:cf:7d:f4:7d:a5:0e:68:ce:2f:6b:bb:2c:bb:
                    fc:e9:90:08:10:c1:90:fb:94:3c:89:bc:f5:9b:60:
                    28:33:46:38:cb:3f:d3:0b:be:98:20:b5:9a:8f:5b:
                    2f:ed:72:5f:15:86:4c:a7:00:10:de:33:96:6b:1f:
                    f2:0e:89:a3:d1:06:ee:bb:cd:e3:90:0e:aa:02:18:
                    96:ae:8f:31:3f:4c:df:a5:79:7e:20:98:32:a9:17:
                    76:73:b5:93:0a:d7:9b:39:ec:a4:66:51:5f:ff:c0:
                    6f:ed:ca:b0:8d:57:57:01:21:a8:a2:75:88:ce:f0:
                    29:98:1b:d6:0e:f6:ab:93:b6:41:96:26:36:ed:61:
                    7b:d0:0e:ea:ad:ed:57:23:76:e6:00:37:74:09:ac:
                    02:f7
                Exponent: 65537 (0x10001)
        X509v3 extensions:
            X509v3 Basic Constraints: 
                CA:FALSE
            X509v3 Subject Key Identifier: 
                13:64:DA:90:5E:49:CD:4E:FE:91:F0:B7:12:B8:3C:00:DD:63:61:8A
            X509v3 Authority Key Identifier: 
                keyid:81:0C:98:DB:6B:52:44:0C:1D:46:F0:6F:3E:FB:A6:B8:1C:EC:AD:F3
                DirName:/CN=Easy-RSA CA
                serial:D8:17:3D:C0:56:39:49:64

            X509v3 Extended Key Usage: 
                TLS Web Client Authentication
            X509v3 Key Usage: 
                Digital Signature
    Signature Algorithm: sha256WithRSAEncryption
         77:8c:1a:5a:a5:63:14:7d:bf:06:1f:9a:49:85:4b:7a:b2:e7:
         32:d2:77:1c:6a:b2:f8:19:4c:54:58:f7:6f:d9:e9:4c:23:27:
         42:97:d6:ae:7a:d0:2b:5d:41:f6:5a:41:12:ce:3a:fd:09:20:
         fc:59:2b:e0:4a:a9:f8:5a:41:5b:d3:b1:a7:99:36:1d:6f:98:
         32:db:78:29:da:f2:d8:34:69:5d:f9:9a:31:26:c1:16:b1:58:
         9d:8a:76:c8:7d:cd:9b:97:0d:46:ce:49:2d:9d:44:49:61:38:
         84:5f:0c:ca:aa:4f:65:a4:63:9d:03:b3:7a:ff:24:c1:de:e7:
         aa:eb:2a:a7:69:93:47:fd:c4:3e:8f:c8:88:cd:fe:aa:91:eb:
         24:ce:b0:d3:a7:09:f2:ca:3b:6a:25:cf:08:1b:30:7b:44:f5:
         be:6a:1c:d9:40:e7:9a:71:d8:28:6a:bf:d8:81:b2:72:bf:1d:
         55:98:1e:2c:8c:b5:2a:07:92:f6:ee:4b:63:80:e6:d7:cd:95:
         5b:f2:92:9f:36:a6:9e:3d:4c:1f:80:7e:36:9a:bb:c3:0f:fd:
         ea:40:61:73:57:bc:ba:c7:11:b5:6f:90:a0:74:8b:5d:71:12:
         af:8b:ed:70:52:3b:cf:b1:0a:6b:34:e6:f4:55:33:3f:97:fa:
         d6:7e:2f:ef
-----BEGIN CERTIFICATE-----
MIIDSDCCAjCgAwIBAgIQDnWCiJs0C0AhaGNwsvZQaTANBgkqhkiG9w0BAQsFADAW
MRQwEgYDVQQDDAtFYXN5LVJTQSBDQTAeFw0xODExMjcwMjM4MzVaFw0yODExMjQw
MjM4MzVaMBAxDjAMBgNVBAMMBWFkbWluMIIBIjANBgkqhkiG9w0BAQEFAAOCAQ8A
MIIBCgKCAQEA5JBJswTjeooAjTPHI29g+ZXXSd/p7DiI2X+Rsj/JJlQ1R/QH/j5h
4aDDKx/KEvcveJx8oNDvHW2MmrY0L4HJPoOJ3CVce9OH/jvr7PBoDaGEVjni0+AS
vnGqNTZOszgdHPGVGoL4txfzQc999H2lDmjOL2u7LLv86ZAIEMGQ+5Q8ibz1m2Ao
M0Y4yz/TC76YILWaj1sv7XJfFYZMpwAQ3jOWax/yDomj0Qbuu83jkA6qAhiWro8x
P0zfpXl+IJgyqRd2c7WTCtebOeykZlFf/8Bv7cqwjVdXASGoonWIzvApmBvWDvar
k7ZBliY27WF70A7qre1XI3bmADd0CawC9wIDAQABo4GXMIGUMAkGA1UdEwQCMAAw
HQYDVR0OBBYEFBNk2pBeSc1O/pHwtxK4PADdY2GKMEYGA1UdIwQ/MD2AFIEMmNtr
UkQMHUbwbz77prgc7K3zoRqkGDAWMRQwEgYDVQQDDAtFYXN5LVJTQSBDQYIJANgX
PcBWOUlkMBMGA1UdJQQMMAoGCCsGAQUFBwMCMAsGA1UdDwQEAwIHgDANBgkqhkiG
9w0BAQsFAAOCAQEAd4waWqVjFH2/Bh+aSYVLerLnMtJ3HGqy+BlMVFj3b9npTCMn
QpfWrnrQK11B9lpBEs46/Qkg/Fkr4Eqp+FpBW9Oxp5k2HW+YMtt4Kdry2DRpXfma
MSbBFrFYnYp2yH3Nm5cNRs5JLZ1ESWE4hF8MyqpPZaRjnQOzev8kwd7nqusqp2mT
R/3EPo/IiM3+qpHrJM6w06cJ8so7aiXPCBswe0T1vmoc2UDnmnHYKGq/2IGycr8d
VZgeLIy1KgeS9u5LY4Dm182VW/KSnzamnj1MH4B+Npq7ww/96kBhc1e8uscRtW+Q
oHSLXXESr4vtcFI7z7EKazTm9FUzP5f61n4v7w==
-----END CERTIFICATE-----
