Certificate:
    Data:
        Version: 3 (0x2)
        Serial Number:
            65:f2:20:47:ac:9e:7f:d1:78:06:93:86:74:eb:63:13
    Signature Algorithm: sha256WithRSAEncryption
        Issuer: CN=Easy-RSA CA
        Validity
            Not Before: Nov 27 02:16:12 2018 GMT
            Not After : Nov 24 02:16:12 2028 GMT
        Subject: CN=bobo
        Subject Public Key Info:
            Public Key Algorithm: rsaEncryption
                Public-Key: (2048 bit)
                Modulus:
                    00:aa:7e:e0:35:07:76:8f:8b:08:93:59:0d:57:3e:
                    f9:50:2d:e2:06:ee:1b:7f:5d:10:fe:20:cd:c3:d2:
                    e6:6a:b3:dc:35:ed:02:17:72:ad:6b:0f:45:7c:8e:
                    ed:8c:6e:75:15:c5:fe:21:30:ee:1a:01:02:5a:ca:
                    cf:d5:71:50:cf:8d:d4:53:5e:a8:22:c3:e5:48:85:
                    79:6b:6e:2e:42:37:46:eb:0f:b2:7e:2c:06:84:37:
                    e4:aa:eb:37:09:fc:2f:8c:7a:65:23:e9:fb:80:56:
                    80:85:3b:ce:f4:c1:88:59:bf:be:69:e8:e6:98:84:
                    c5:bd:e1:56:7d:9e:7a:7f:d5:1d:c0:0b:cb:8e:44:
                    c8:72:2e:4a:c1:87:29:a7:98:7e:21:ae:16:f2:40:
                    c6:a5:12:a8:38:0f:83:10:d9:1b:28:da:05:02:b7:
                    78:46:b8:80:b9:c6:ef:d7:2b:3a:8e:63:e0:44:72:
                    c3:1d:d6:40:9d:36:92:78:50:d9:99:22:af:97:f9:
                    20:00:8c:81:4e:98:4e:54:41:8f:b0:79:f7:d2:4f:
                    07:f6:09:38:cf:80:48:22:01:a1:d7:fc:67:2a:93:
                    11:0c:c4:c5:00:90:70:3e:aa:0f:5f:7b:ce:7e:c6:
                    e8:07:c4:e5:4e:75:28:6e:28:8d:d7:f4:73:85:ac:
                    ec:93
                Exponent: 65537 (0x10001)
        X509v3 extensions:
            X509v3 Basic Constraints: 
                CA:FALSE
            X509v3 Subject Key Identifier: 
                F1:F1:8E:66:7A:4B:19:F2:38:E4:18:50:05:24:55:19:03:95:25:90
            X509v3 Authority Key Identifier: 
                keyid:81:0C:98:DB:6B:52:44:0C:1D:46:F0:6F:3E:FB:A6:B8:1C:EC:AD:F3
                DirName:/CN=Easy-RSA CA
                serial:D8:17:3D:C0:56:39:49:64

            X509v3 Extended Key Usage: 
                TLS Web Client Authentication
            X509v3 Key Usage: 
                Digital Signature
    Signature Algorithm: sha256WithRSAEncryption
         71:e7:f5:cc:a2:ea:2e:55:89:f2:90:04:ac:59:8d:76:c7:ab:
         90:6d:9a:e0:cb:21:38:f0:7f:48:01:44:a8:06:da:0e:c1:9a:
         22:12:a4:2f:33:20:28:16:88:60:6b:42:35:99:ac:a0:07:65:
         71:e6:2b:96:6b:c0:04:19:39:08:92:1a:b6:72:30:13:b4:93:
         95:f0:43:e7:65:4d:1e:c0:3c:8c:82:38:fc:1e:c8:3d:c7:06:
         88:44:2e:e0:0a:a0:69:3b:34:06:23:0f:2d:62:f0:26:82:07:
         ec:90:c8:b4:fa:a6:5a:61:5c:c3:2c:e5:5f:1f:a5:da:52:dc:
         9a:6e:5b:16:53:ce:45:39:5f:30:b6:dd:12:33:67:61:21:52:
         18:bc:7c:00:b1:48:22:bb:14:3c:45:a3:45:be:fa:77:d0:44:
         9c:28:f3:93:be:88:20:aa:b0:2c:ca:2a:7a:24:bf:37:60:f6:
         29:aa:0f:bd:47:18:57:27:43:aa:44:15:7c:bd:07:8d:6e:74:
         d3:61:8c:c0:3b:dd:63:ab:c2:3b:22:84:6d:2f:b9:73:e7:b0:
         d5:5e:fc:ed:4b:ae:53:b3:ed:26:de:16:26:c3:4c:f7:b4:e7:
         4f:65:7a:ce:98:cc:55:82:2f:b0:40:e2:48:72:e9:05:a1:ec:
         f0:ba:49:fc
-----BEGIN CERTIFICATE-----
MIIDRzCCAi+gAwIBAgIQZfIgR6yef9F4BpOGdOtjEzANBgkqhkiG9w0BAQsFADAW
MRQwEgYDVQQDDAtFYXN5LVJTQSBDQTAeFw0xODExMjcwMjE2MTJaFw0yODExMjQw
MjE2MTJaMA8xDTALBgNVBAMMBGJvYm8wggEiMA0GCSqGSIb3DQEBAQUAA4IBDwAw
ggEKAoIBAQCqfuA1B3aPiwiTWQ1XPvlQLeIG7ht/XRD+IM3D0uZqs9w17QIXcq1r
D0V8ju2MbnUVxf4hMO4aAQJays/VcVDPjdRTXqgiw+VIhXlrbi5CN0brD7J+LAaE
N+Sq6zcJ/C+MemUj6fuAVoCFO870wYhZv75p6OaYhMW94VZ9nnp/1R3AC8uORMhy
LkrBhymnmH4hrhbyQMalEqg4D4MQ2Rso2gUCt3hGuIC5xu/XKzqOY+BEcsMd1kCd
NpJ4UNmZIq+X+SAAjIFOmE5UQY+weffSTwf2CTjPgEgiAaHX/GcqkxEMxMUAkHA+
qg9fe85+xugHxOVOdShuKI3X9HOFrOyTAgMBAAGjgZcwgZQwCQYDVR0TBAIwADAd
BgNVHQ4EFgQU8fGOZnpLGfI45BhQBSRVGQOVJZAwRgYDVR0jBD8wPYAUgQyY22tS
RAwdRvBvPvumuBzsrfOhGqQYMBYxFDASBgNVBAMMC0Vhc3ktUlNBIENBggkA2Bc9
wFY5SWQwEwYDVR0lBAwwCgYIKwYBBQUHAwIwCwYDVR0PBAQDAgeAMA0GCSqGSIb3
DQEBCwUAA4IBAQBx5/XMououVYnykASsWY12x6uQbZrgyyE48H9IAUSoBtoOwZoi
EqQvMyAoFohga0I1maygB2Vx5iuWa8AEGTkIkhq2cjATtJOV8EPnZU0ewDyMgjj8
Hsg9xwaIRC7gCqBpOzQGIw8tYvAmggfskMi0+qZaYVzDLOVfH6XaUtyablsWU85F
OV8wtt0SM2dhIVIYvHwAsUgiuxQ8RaNFvvp30EScKPOTvoggqrAsyip6JL83YPYp
qg+9RxhXJ0OqRBV8vQeNbnTTYYzAO91jq8I7IoRtL7lz57DVXvztS65Ts+0m3hYm
w0z3tOdPZXrOmMxVgi+wQOJIcukFoezwukn8
-----END CERTIFICATE-----
